; Function Attrs: nounwind uwtable
define dso_local range(i64 0, -9223372036854775808) i64 @pg_tablespace_size_name(ptr noundef captures(none) %0) local_unnamed_addr #0 {
  %2 = getelementptr inbounds nuw i8, ptr %0, i64 32
  %3 = load i64, ptr %2, align 8
  %4 = inttoptr i64 %3 to ptr
  %5 = tail call i32 @get_tablespace_oid(ptr noundef %4, i1 noundef zeroext false) #9
  %6 = tail call fastcc i64 @calculate_tablespace_size(i32 noundef %5)
  %7 = icmp slt i64 %6, 0
  br i1 %7, label %8, label %10

8:                                                ; preds = %1
  %9 = getelementptr inbounds nuw i8, ptr %0, i64 28
  store i8 1, ptr %9, align 4
  br label %10

10:                                               ; preds = %1, %8
  %.0 = phi i64 [ 0, %8 ], [ %6, %1 ]
  ret i64 %.0
}